target datalayout = "e-m:e-p270:32:32-p271:32:32-p272:64:64-i64:64-i128:128-f80:128-n8:16:32:64-S128"
target triple = "x86_64-pc-linux-gnu"

%class.ABstats = type { [8 x %"class.std::__cxx11::basic_string"], %struct.ABtracker, %struct.ABtracker, [2 x %struct.ABtracker], [8 x %struct.ABtracker] }
%"class.std::__cxx11::basic_string" = type { %"struct.std::__cxx11::basic_string<char>::_Alloc_hider", i64, %union.anon }
%"struct.std::__cxx11::basic_string<char>::_Alloc_hider" = type { ptr }
%union.anon = type { i64, [8 x i8] }
%struct.ABtracker = type { [49 x i32], i32, i32, i32, i32 }
%"class.std::allocator" = type { i8 }

@.str.14 = private unnamed_addr constant [2 x i8] c"\0A\00", align 1
@.str.29 = private unnamed_addr constant [6 x i8] c"Side1\00", align 1
@.str.30 = private unnamed_addr constant [6 x i8] c"Side0\00", align 1
@.str.32 = private unnamed_addr constant [50 x i8] c"basic_string: construction from null is not valid\00", align 1

; Function Attrs: mustprogress nounwind uwtable
define linkonce_odr noundef i64 @_ZNSt11char_traitsIcE6lengthEPKc(ptr noundef %0) #5 comdat align 2 {
  %2 = alloca ptr, align 8
  store ptr %0, ptr %2, align 8
  %3 = load ptr, ptr %2, align 8
  %4 = call i64 @strlen(ptr noundef %3) #3
  ret i64 %4
}

; Function Attrs: mustprogress nounwind uwtable
define linkonce_odr void @_ZNSt7__cxx1112basic_stringIcSt11char_traitsIcESaIcEE12_Alloc_hiderD2Ev(ptr noundef nonnull align 8 dereferenceable(8) %0) unnamed_addr #5 comdat align 2 {
  %2 = alloca ptr, align 8
  store ptr %0, ptr %2, align 8
  %3 = load ptr, ptr %2, align 8
  call void @_ZNSaIcED2Ev(ptr noundef nonnull align 1 dereferenceable(1) %3) #3
  ret void
}

; Function Attrs: mustprogress uwtable
define linkonce_odr void @_ZNSt7__cxx1112basic_stringIcSt11char_traitsIcESaIcEEC2IS3_EEPKcRKS3_(ptr noundef nonnull align 8 dereferenceable(32) %0, ptr noundef %1, ptr noundef nonnull align 1 dereferenceable(1) %2) unnamed_addr #4 comdat align 2 personality ptr @__gxx_personality_v0 {
  %4 = alloca ptr, align 8
  %5 = alloca ptr, align 8
  %6 = alloca ptr, align 8
  %7 = alloca ptr, align 8
  %8 = alloca i32, align 4
  %9 = alloca ptr, align 8
  store ptr %0, ptr %4, align 8
  store ptr %1, ptr %5, align 8
  store ptr %2, ptr %6, align 8
  %10 = load ptr, ptr %4, align 8
  %11 = getelementptr inbounds nuw %"class.std::__cxx11::basic_string", ptr %10, i32 0, i32 0
  %12 = call noundef ptr @_ZNSt7__cxx1112basic_stringIcSt11char_traitsIcESaIcEE13_M_local_dataEv(ptr noundef nonnull align 8 dereferenceable(32) %10)
  %13 = load ptr, ptr %6, align 8
  call void @_ZNSt7__cxx1112basic_stringIcSt11char_traitsIcESaIcEE12_Alloc_hiderC1EPcRKS3_(ptr noundef nonnull align 8 dereferenceable(8) %11, ptr noundef %12, ptr noundef nonnull align 1 dereferenceable(1) %13)
  %14 = load ptr, ptr %5, align 8
  %15 = icmp eq ptr %14, null
  br i1 %15, label %16, label %22

16:                                               ; preds = %3
  invoke void @_ZSt19__throw_logic_errorPKc(ptr noundef @.str.32) #8
          to label %17 unwind label %18

17:                                               ; preds = %16
  unreachable

18:                                               ; preds = %26, %22, %16
  %19 = landingpad { ptr, i32 }
          cleanup
  %20 = extractvalue { ptr, i32 } %19, 0
  store ptr %20, ptr %7, align 8
  %21 = extractvalue { ptr, i32 } %19, 1
  store i32 %21, ptr %8, align 4
  call void @_ZNSt7__cxx1112basic_stringIcSt11char_traitsIcESaIcEE12_Alloc_hiderD2Ev(ptr noundef nonnull align 8 dereferenceable(8) %11) #3
  br label %31

22:                                               ; preds = %3
  %23 = load ptr, ptr %5, align 8
  %24 = load ptr, ptr %5, align 8
  %25 = invoke noundef i64 @_ZNSt11char_traitsIcE6lengthEPKc(ptr noundef %24)
          to label %26 unwind label %18

26:                                               ; preds = %22
  %27 = getelementptr inbounds i8, ptr %23, i64 %25
  store ptr %27, ptr %9, align 8
  %28 = load ptr, ptr %5, align 8
  %29 = load ptr, ptr %9, align 8
  invoke void @_ZNSt7__cxx1112basic_stringIcSt11char_traitsIcESaIcEE12_M_constructIPKcEEvT_S8_St20forward_iterator_tag(ptr noundef nonnull align 8 dereferenceable(32) %10, ptr noundef %28, ptr noundef %29)
          to label %30 unwind label %18

30:                                               ; preds = %26
  ret void

31:                                               ; preds = %18
  %32 = load ptr, ptr %7, align 8
  %33 = load i32, ptr %8, align 4
  %34 = insertvalue { ptr, i32 } poison, ptr %32, 0
  %35 = insertvalue { ptr, i32 } %34, i32 %33, 1
  resume { ptr, i32 } %35
}

; Function Attrs: mustprogress uwtable
define void @_ZN7ABstats10PrintStatsERSt14basic_ofstreamIcSt11char_traitsIcEE(ptr noundef nonnull align 8 dereferenceable(2800) %0, ptr noundef nonnull align 8 dereferenceable(248) %1) #4 align 2 personality ptr @__gxx_personality_v0 {
  %3 = alloca ptr, align 8
  %4 = alloca ptr, align 8
  %5 = alloca %struct.ABtracker, align 4
  %6 = alloca %"class.std::__cxx11::basic_string", align 8
  %7 = alloca %"class.std::allocator", align 1
  %8 = alloca ptr, align 8
  %9 = alloca i32, align 4
  %10 = alloca %"class.std::__cxx11::basic_string", align 8
  %11 = alloca %"class.std::allocator", align 1
  %12 = alloca i32, align 4
  %13 = alloca i32, align 4
  %14 = alloca i32, align 4
  store ptr %0, ptr %3, align 8
  store ptr %1, ptr %4, align 8
  %15 = load ptr, ptr %3, align 8
  %16 = getelementptr inbounds nuw %class.ABstats, ptr %15, i32 0, i32 3
  %17 = getelementptr inbounds [2 x %struct.ABtracker], ptr %16, i64 0, i64 1
  %18 = getelementptr inbounds nuw %struct.ABtracker, ptr %17, i32 0, i32 1
  %19 = load i32, ptr %18, align 4
  %20 = getelementptr inbounds nuw %class.ABstats, ptr %15, i32 0, i32 3
  %21 = getelementptr inbounds [2 x %struct.ABtracker], ptr %20, i64 0, i64 0
  %22 = getelementptr inbounds nuw %struct.ABtracker, ptr %21, i32 0, i32 1
  %23 = load i32, ptr %22, align 4
  %24 = add nsw i32 %19, %23
  %25 = getelementptr inbounds nuw %struct.ABtracker, ptr %5, i32 0, i32 1
  store i32 %24, ptr %25, align 4
  %26 = getelementptr inbounds nuw %class.ABstats, ptr %15, i32 0, i32 3
  %27 = getelementptr inbounds [2 x %struct.ABtracker], ptr %26, i64 0, i64 1
  %28 = getelementptr inbounds nuw %struct.ABtracker, ptr %27, i32 0, i32 3
  %29 = load i32, ptr %28, align 4
  %30 = getelementptr inbounds nuw %class.ABstats, ptr %15, i32 0, i32 3
  %31 = getelementptr inbounds [2 x %struct.ABtracker], ptr %30, i64 0, i64 0
  %32 = getelementptr inbounds nuw %struct.ABtracker, ptr %31, i32 0, i32 3
  %33 = load i32, ptr %32, align 4
  %34 = add nsw i32 %29, %33
  %35 = getelementptr inbounds nuw %struct.ABtracker, ptr %5, i32 0, i32 3
  store i32 %34, ptr %35, align 4
  %36 = getelementptr inbounds nuw %struct.ABtracker, ptr %5, i32 0, i32 1
  %37 = load i32, ptr %36, align 4
  %38 = icmp ne i32 %37, 0
  br i1 %38, label %39, label %91

39:                                               ; preds = %2
  %40 = load ptr, ptr %4, align 8
  call void @_ZNK7ABstats19PrintHeaderPositionERSt14basic_ofstreamIcSt11char_traitsIcEE(ptr noundef nonnull align 8 dereferenceable(2800) %15, ptr noundef nonnull align 8 dereferenceable(248) %40)
  %41 = load ptr, ptr %4, align 8
  call void @_ZNSaIcEC1Ev(ptr noundef nonnull align 1 dereferenceable(1) %7) #3
  invoke void @_ZNSt7__cxx1112basic_stringIcSt11char_traitsIcESaIcEEC2IS3_EEPKcRKS3_(ptr noundef nonnull align 8 dereferenceable(32) %6, ptr noundef @.str.29, ptr noundef nonnull align 1 dereferenceable(1) %7)
          to label %42 unwind label %70

42:                                               ; preds = %39
  %43 = getelementptr inbounds nuw %class.ABstats, ptr %15, i32 0, i32 3
  %44 = getelementptr inbounds [2 x %struct.ABtracker], ptr %43, i64 0, i64 1
  invoke void @_ZNK7ABstats18PrintStatsPositionERSt14basic_ofstreamIcSt11char_traitsIcEEiRKNSt7__cxx1112basic_stringIcS2_SaIcEEERK9ABtrackerSD_(ptr noundef nonnull align 8 dereferenceable(2800) %15, ptr noundef nonnull align 8 dereferenceable(248) %41, i32 noundef -1, ptr noundef nonnull align 8 dereferenceable(32) %6, ptr noundef nonnull align 4 dereferenceable(212) %44, ptr noundef nonnull align 4 dereferenceable(212) %5)
          to label %45 unwind label %74

45:                                               ; preds = %42
  call void @_ZNSt7__cxx1112basic_stringIcSt11char_traitsIcESaIcEED1Ev(ptr noundef nonnull align 8 dereferenceable(32) %6) #3
  call void @_ZNSaIcED1Ev(ptr noundef nonnull align 1 dereferenceable(1) %7) #3
  %46 = load ptr, ptr %4, align 8
  call void @_ZNSaIcEC1Ev(ptr noundef nonnull align 1 dereferenceable(1) %11) #3
  invoke void @_ZNSt7__cxx1112basic_stringIcSt11char_traitsIcESaIcEEC2IS3_EEPKcRKS3_(ptr noundef nonnull align 8 dereferenceable(32) %10, ptr noundef @.str.30, ptr noundef nonnull align 1 dereferenceable(1) %11)
          to label %47 unwind label %79

47:                                               ; preds = %45
  %48 = getelementptr inbounds nuw %class.ABstats, ptr %15, i32 0, i32 3
  %49 = getelementptr inbounds [2 x %struct.ABtracker], ptr %48, i64 0, i64 0
  invoke void @_ZNK7ABstats18PrintStatsPositionERSt14basic_ofstreamIcSt11char_traitsIcEEiRKNSt7__cxx1112basic_stringIcS2_SaIcEEERK9ABtrackerSD_(ptr noundef nonnull align 8 dereferenceable(2800) %15, ptr noundef nonnull align 8 dereferenceable(248) %46, i32 noundef -1, ptr noundef nonnull align 8 dereferenceable(32) %10, ptr noundef nonnull align 4 dereferenceable(212) %49, ptr noundef nonnull align 4 dereferenceable(212) %5)
          to label %50 unwind label %83

50:                                               ; preds = %47
  call void @_ZNSt7__cxx1112basic_stringIcSt11char_traitsIcESaIcEED1Ev(ptr noundef nonnull align 8 dereferenceable(32) %10) #3
  call void @_ZNSaIcED1Ev(ptr noundef nonnull align 1 dereferenceable(1) %11) #3
  %51 = load ptr, ptr %4, align 8
  %52 = call noundef nonnull align 8 dereferenceable(8) ptr @_ZStlsISt11char_traitsIcEERSt13basic_ostreamIcT_ES5_PKc(ptr noundef nonnull align 8 dereferenceable(8) %51, ptr noundef @.str.14)
  store i32 0, ptr %12, align 4
  br label %53

53:                                               ; preds = %67, %50
  %54 = load i32, ptr %12, align 4
  %55 = icmp slt i32 %54, 8
  br i1 %55, label %56, label %88

56:                                               ; preds = %53
  %57 = load ptr, ptr %4, align 8
  %58 = load i32, ptr %12, align 4
  %59 = getelementptr inbounds nuw %class.ABstats, ptr %15, i32 0, i32 0
  %60 = load i32, ptr %12, align 4
  %61 = sext i32 %60 to i64
  %62 = getelementptr inbounds [8 x %"class.std::__cxx11::basic_string"], ptr %59, i64 0, i64 %61
  %63 = getelementptr inbounds nuw %class.ABstats, ptr %15, i32 0, i32 4
  %64 = load i32, ptr %12, align 4
  %65 = sext i32 %64 to i64
  %66 = getelementptr inbounds [8 x %struct.ABtracker], ptr %63, i64 0, i64 %65
  call void @_ZNK7ABstats18PrintStatsPositionERSt14basic_ofstreamIcSt11char_traitsIcEEiRKNSt7__cxx1112basic_stringIcS2_SaIcEEERK9ABtrackerSD_(ptr noundef nonnull align 8 dereferenceable(2800) %15, ptr noundef nonnull align 8 dereferenceable(248) %57, i32 noundef %58, ptr noundef nonnull align 8 dereferenceable(32) %62, ptr noundef nonnull align 4 dereferenceable(212) %66, ptr noundef nonnull align 4 dereferenceable(212) %5)
  br label %67

67:                                               ; preds = %56
  %68 = load i32, ptr %12, align 4
  %69 = add nsw i32 %68, 1
  store i32 %69, ptr %12, align 4
  br label %53, !llvm.loop !15

70:                                               ; preds = %39
  %71 = landingpad { ptr, i32 }
          cleanup
  %72 = extractvalue { ptr, i32 } %71, 0
  store ptr %72, ptr %8, align 8
  %73 = extractvalue { ptr, i32 } %71, 1
  store i32 %73, ptr %9, align 4
  br label %78

74:                                               ; preds = %42
  %75 = landingpad { ptr, i32 }
          cleanup
  %76 = extractvalue { ptr, i32 } %75, 0
  store ptr %76, ptr %8, align 8
  %77 = extractvalue { ptr, i32 } %75, 1
  store i32 %77, ptr %9, align 4
  call void @_ZNSt7__cxx1112basic_stringIcSt11char_traitsIcESaIcEED1Ev(ptr noundef nonnull align 8 dereferenceable(32) %6) #3
  br label %78

78:                                               ; preds = %74, %70
  call void @_ZNSaIcED1Ev(ptr noundef nonnull align 1 dereferenceable(1) %7) #3
  br label %122

79:                                               ; preds = %45
  %80 = landingpad { ptr, i32 }
          cleanup
  %81 = extractvalue { ptr, i32 } %80, 0
  store ptr %81, ptr %8, align 8
  %82 = extractvalue { ptr, i32 } %80, 1
  store i32 %82, ptr %9, align 4
  br label %87

83:                                               ; preds = %47
  %84 = landingpad { ptr, i32 }
          cleanup
  %85 = extractvalue { ptr, i32 } %84, 0
  store ptr %85, ptr %8, align 8
  %86 = extractvalue { ptr, i32 } %84, 1
  store i32 %86, ptr %9, align 4
  call void @_ZNSt7__cxx1112basic_stringIcSt11char_traitsIcESaIcEED1Ev(ptr noundef nonnull align 8 dereferenceable(32) %10) #3
  br label %87

87:                                               ; preds = %83, %79
  call void @_ZNSaIcED1Ev(ptr noundef nonnull align 1 dereferenceable(1) %11) #3
  br label %122

88:                                               ; preds = %53
  %89 = load ptr, ptr %4, align 8
  %90 = call noundef nonnull align 8 dereferenceable(8) ptr @_ZStlsISt11char_traitsIcEERSt13basic_ostreamIcT_ES5_PKc(ptr noundef nonnull align 8 dereferenceable(8) %89, ptr noundef @.str.14)
  br label %91

91:                                               ; preds = %88, %2
  %92 = load ptr, ptr %4, align 8
  call void @_ZNK7ABstats16PrintHeaderDepthERSt14basic_ofstreamIcSt11char_traitsIcEE(ptr noundef nonnull align 8 dereferenceable(2800) %15, ptr noundef nonnull align 8 dereferenceable(248) %92)
  store i32 0, ptr %13, align 4
  store i32 48, ptr %14, align 4
  br label %93

93:                                               ; preds = %117, %91
  %94 = load i32, ptr %14, align 4
  %95 = icmp sge i32 %94, 0
  br i1 %95, label %96, label %120

96:                                               ; preds = %93
  %97 = getelementptr inbounds nuw %class.ABstats, ptr %15, i32 0, i32 2
  %98 = getelementptr inbounds nuw %struct.ABtracker, ptr %97, i32 0, i32 0
  %99 = load i32, ptr %14, align 4
  %100 = sext i32 %99 to i64
  %101 = getelementptr inbounds [49 x i32], ptr %98, i64 0, i64 %100
  %102 = load i32, ptr %101, align 4
  %103 = icmp eq i32 %102, 0
  br i1 %103, label %104, label %105

104:                                              ; preds = %96
  br label %117

105:                                              ; preds = %96
  %106 = getelementptr inbounds nuw %class.ABstats, ptr %15, i32 0, i32 2
  %107 = getelementptr inbounds nuw %struct.ABtracker, ptr %106, i32 0, i32 0
  %108 = load i32, ptr %14, align 4
  %109 = sext i32 %108 to i64
  %110 = getelementptr inbounds [49 x i32], ptr %107, i64 0, i64 %109
  %111 = load i32, ptr %110, align 4
  %112 = load i32, ptr %13, align 4
  %113 = add nsw i32 %112, %111
  store i32 %113, ptr %13, align 4
  %114 = load ptr, ptr %4, align 8
  %115 = load i32, ptr %14, align 4
  %116 = load i32, ptr %13, align 4
  call void @_ZNK7ABstats15PrintStatsDepthERSt14basic_ofstreamIcSt11char_traitsIcEEii(ptr noundef nonnull align 8 dereferenceable(2800) %15, ptr noundef nonnull align 8 dereferenceable(248) %114, i32 noundef %115, i32 noundef %116)
  br label %117

117:                                              ; preds = %105, %104
  %118 = load i32, ptr %14, align 4
  %119 = add nsw i32 %118, -1
  store i32 %119, ptr %14, align 4
  br label %93, !llvm.loop !16

120:                                              ; preds = %93
  %121 = load ptr, ptr %4, align 8
  call void @_ZNK7ABstats17PrintAverageDepthERSt14basic_ofstreamIcSt11char_traitsIcEERK9ABtracker(ptr noundef nonnull align 8 dereferenceable(2800) %15, ptr noundef nonnull align 8 dereferenceable(248) %121, ptr noundef nonnull align 4 dereferenceable(212) %5)
  ret void

122:                                              ; preds = %87, %78
  %123 = load ptr, ptr %8, align 8
  %124 = load i32, ptr %9, align 4
  %125 = insertvalue { ptr, i32 } poison, ptr %123, 0
  %126 = insertvalue { ptr, i32 } %125, i32 %124, 1
  resume { ptr, i32 } %126
}