; Function Attrs: mustprogress uwtable
define void @_ZN7ABstats10PrintStatsERSt14basic_ofstreamIcSt11char_traitsIcEE(ptr noundef nonnull align 8 dereferenceable(2800) %0, ptr noundef nonnull align 8 dereferenceable(248) %1) local_unnamed_addr #3 align 2 personality ptr @__gxx_personality_v0 {
  %3 = alloca %struct.ABtracker, align 4
  %4 = alloca %"class.std::__cxx11::basic_string", align 8
  %5 = alloca %"class.std::allocator", align 1
  %6 = alloca %"class.std::__cxx11::basic_string", align 8
  %7 = alloca %"class.std::allocator", align 1
  %8 = getelementptr inbounds nuw i8, ptr %0, i64 680
  %9 = getelementptr inbounds i8, ptr %0, i64 892
  %10 = getelementptr inbounds i8, ptr %0, i64 1088
  %11 = load i32, ptr %10, align 8
  %12 = getelementptr inbounds i8, ptr %0, i64 876
  %13 = load i32, ptr %12, align 4
  %14 = add nsw i32 %13, %11
  %15 = getelementptr inbounds nuw i8, ptr %3, i64 196
  store i32 %14, ptr %15, align 4
  %16 = getelementptr inbounds i8, ptr %0, i64 1096
  %17 = load i32, ptr %16, align 8
  %18 = getelementptr inbounds i8, ptr %0, i64 884
  %19 = load i32, ptr %18, align 4
  %20 = add nsw i32 %19, %17
  %21 = getelementptr inbounds nuw i8, ptr %3, i64 204
  store i32 %20, ptr %21, align 4
  %.not = icmp eq i32 %14, 0
  br i1 %.not, label %47, label %22

22:                                               ; preds = %2
  tail call void @_ZNK7ABstats19PrintHeaderPositionERSt14basic_ofstreamIcSt11char_traitsIcEE(ptr nonnull align 8 poison, ptr noundef nonnull align 8 dereferenceable(248) %1)
  call void @_ZNSaIcEC1Ev(ptr noundef nonnull align 1 dereferenceable(1) %5) #13
  %23 = invoke noundef ptr @_ZNSt7__cxx1112basic_stringIcSt11char_traitsIcESaIcEE13_M_local_dataEv(ptr noundef nonnull align 8 dereferenceable(32) %4)
          to label %.noexc unwind label %37

.noexc:                                           ; preds = %22
  invoke void @_ZNSt7__cxx1112basic_stringIcSt11char_traitsIcESaIcEE12_Alloc_hiderC1EPcRKS3_(ptr noundef nonnull align 8 dereferenceable(8) %4, ptr noundef %23, ptr noundef nonnull align 1 dereferenceable(1) %5)
          to label %.noexc35 unwind label %37

.noexc35:                                         ; preds = %.noexc
  invoke void @_ZNSt7__cxx1112basic_stringIcSt11char_traitsIcESaIcEE12_M_constructIPKcEEvT_S8_St20forward_iterator_tag(ptr noundef nonnull align 8 dereferenceable(32) %4, ptr noundef nonnull @.str.29, ptr noundef nonnull getelementptr inbounds (i8, ptr @.str.29, i64 5))
          to label %_ZNSt7__cxx1112basic_stringIcSt11char_traitsIcESaIcEEC2IS3_EEPKcRKS3_.exit unwind label %24

24:                                               ; preds = %.noexc35
  %25 = landingpad { ptr, i32 }
          cleanup
  call void @_ZNSaIcED2Ev(ptr noundef nonnull align 1 dereferenceable(1) %4) #13
  br label %.body

_ZNSt7__cxx1112basic_stringIcSt11char_traitsIcESaIcEEC2IS3_EEPKcRKS3_.exit: ; preds = %.noexc35
  invoke void @_ZNK7ABstats18PrintStatsPositionERSt14basic_ofstreamIcSt11char_traitsIcEEiRKNSt7__cxx1112basic_stringIcS2_SaIcEEERK9ABtrackerSD_(ptr nonnull align 8 poison, ptr noundef nonnull align 8 dereferenceable(248) %1, i32 noundef -1, ptr noundef nonnull align 8 dereferenceable(32) %4, ptr noundef nonnull align 4 dereferenceable(212) %9, ptr noundef nonnull align 4 dereferenceable(212) %3)
          to label %26 unwind label %39

26:                                               ; preds = %_ZNSt7__cxx1112basic_stringIcSt11char_traitsIcESaIcEEC2IS3_EEPKcRKS3_.exit
  call void @_ZNSt7__cxx1112basic_stringIcSt11char_traitsIcESaIcEED1Ev(ptr noundef nonnull align 8 dereferenceable(32) %4) #13
  call void @_ZNSaIcED1Ev(ptr noundef nonnull align 1 dereferenceable(1) %5) #13
  call void @_ZNSaIcEC1Ev(ptr noundef nonnull align 1 dereferenceable(1) %7) #13
  %27 = invoke noundef ptr @_ZNSt7__cxx1112basic_stringIcSt11char_traitsIcESaIcEE13_M_local_dataEv(ptr noundef nonnull align 8 dereferenceable(32) %6)
          to label %.noexc36 unwind label %41

.noexc36:                                         ; preds = %26
  invoke void @_ZNSt7__cxx1112basic_stringIcSt11char_traitsIcESaIcEE12_Alloc_hiderC1EPcRKS3_(ptr noundef nonnull align 8 dereferenceable(8) %6, ptr noundef %27, ptr noundef nonnull align 1 dereferenceable(1) %7)
          to label %.noexc37 unwind label %41

.noexc37:                                         ; preds = %.noexc36
  invoke void @_ZNSt7__cxx1112basic_stringIcSt11char_traitsIcESaIcEE12_M_constructIPKcEEvT_S8_St20forward_iterator_tag(ptr noundef nonnull align 8 dereferenceable(32) %6, ptr noundef nonnull @.str.30, ptr noundef nonnull getelementptr inbounds (i8, ptr @.str.30, i64 5))
          to label %_ZNSt7__cxx1112basic_stringIcSt11char_traitsIcESaIcEEC2IS3_EEPKcRKS3_.exit40 unwind label %28

28:                                               ; preds = %.noexc37
  %29 = landingpad { ptr, i32 }
          cleanup
  call void @_ZNSaIcED2Ev(ptr noundef nonnull align 1 dereferenceable(1) %6) #13
  br label %.body

_ZNSt7__cxx1112basic_stringIcSt11char_traitsIcESaIcEEC2IS3_EEPKcRKS3_.exit40: ; preds = %.noexc37
  invoke void @_ZNK7ABstats18PrintStatsPositionERSt14basic_ofstreamIcSt11char_traitsIcEEiRKNSt7__cxx1112basic_stringIcS2_SaIcEEERK9ABtrackerSD_(ptr nonnull align 8 poison, ptr noundef nonnull align 8 dereferenceable(248) %1, i32 noundef -1, ptr noundef nonnull align 8 dereferenceable(32) %6, ptr noundef nonnull align 4 dereferenceable(212) %8, ptr noundef nonnull align 4 dereferenceable(212) %3)
          to label %30 unwind label %43

30:                                               ; preds = %_ZNSt7__cxx1112basic_stringIcSt11char_traitsIcESaIcEEC2IS3_EEPKcRKS3_.exit40
  call void @_ZNSt7__cxx1112basic_stringIcSt11char_traitsIcESaIcEED1Ev(ptr noundef nonnull align 8 dereferenceable(32) %6) #13
  call void @_ZNSaIcED1Ev(ptr noundef nonnull align 1 dereferenceable(1) %7) #13
  %31 = call noundef nonnull align 8 dereferenceable(8) ptr @_ZStlsISt11char_traitsIcEERSt13basic_ostreamIcT_ES5_PKc(ptr noundef nonnull align 8 dereferenceable(8) %1, ptr noundef nonnull @.str.14)
  %32 = getelementptr inbounds nuw i8, ptr %0, i64 1104
  br label %33

33:                                               ; preds = %30, %33
  %indvars.iv = phi i64 [ 0, %30 ], [ %indvars.iv.next, %33 ]
  %34 = getelementptr inbounds [8 x %"class.std::__cxx11::basic_string"], ptr %0, i64 0, i64 %indvars.iv
  %35 = getelementptr inbounds [8 x %struct.ABtracker], ptr %32, i64 0, i64 %indvars.iv
  %36 = trunc nuw nsw i64 %indvars.iv to i32
  call void @_ZNK7ABstats18PrintStatsPositionERSt14basic_ofstreamIcSt11char_traitsIcEEiRKNSt7__cxx1112basic_stringIcS2_SaIcEEERK9ABtrackerSD_(ptr nonnull align 8 poison, ptr noundef nonnull align 8 dereferenceable(248) %1, i32 noundef %36, ptr noundef nonnull align 8 dereferenceable(32) %34, ptr noundef nonnull align 4 dereferenceable(212) %35, ptr noundef nonnull align 4 dereferenceable(212) %3)
  %indvars.iv.next = add nuw nsw i64 %indvars.iv, 1
  %exitcond.not = icmp eq i64 %indvars.iv.next, 8
  br i1 %exitcond.not, label %45, label %33, !llvm.loop !12

37:                                               ; preds = %.noexc, %22
  %38 = landingpad { ptr, i32 }
          cleanup
  br label %.body

39:                                               ; preds = %_ZNSt7__cxx1112basic_stringIcSt11char_traitsIcESaIcEEC2IS3_EEPKcRKS3_.exit
  %40 = landingpad { ptr, i32 }
          cleanup
  call void @_ZNSt7__cxx1112basic_stringIcSt11char_traitsIcESaIcEED1Ev(ptr noundef nonnull align 8 dereferenceable(32) %4) #13
  br label %.body

41:                                               ; preds = %.noexc36, %26
  %42 = landingpad { ptr, i32 }
          cleanup
  br label %.body

43:                                               ; preds = %_ZNSt7__cxx1112basic_stringIcSt11char_traitsIcESaIcEEC2IS3_EEPKcRKS3_.exit40
  %44 = landingpad { ptr, i32 }
          cleanup
  call void @_ZNSt7__cxx1112basic_stringIcSt11char_traitsIcESaIcEED1Ev(ptr noundef nonnull align 8 dereferenceable(32) %6) #13
  br label %.body

45:                                               ; preds = %33
  %46 = call noundef nonnull align 8 dereferenceable(8) ptr @_ZStlsISt11char_traitsIcEERSt13basic_ostreamIcT_ES5_PKc(ptr noundef nonnull align 8 dereferenceable(8) %1, ptr noundef nonnull @.str.14)
  br label %47

47:                                               ; preds = %45, %2
  call void @_ZNK7ABstats16PrintHeaderDepthERSt14basic_ofstreamIcSt11char_traitsIcEE(ptr nonnull align 8 poison, ptr noundef nonnull align 8 dereferenceable(248) %1)
  %48 = getelementptr inbounds nuw i8, ptr %0, i64 468
  br label %49

49:                                               ; preds = %47, %56
  %indvars.iv45 = phi i64 [ 48, %47 ], [ %indvars.iv.next46, %56 ]
  %.02342 = phi i32 [ 0, %47 ], [ %.1, %56 ]
  %50 = getelementptr inbounds [49 x i32], ptr %48, i64 0, i64 %indvars.iv45
  %51 = load i32, ptr %50, align 4
  %52 = icmp eq i32 %51, 0
  br i1 %52, label %56, label %53

53:                                               ; preds = %49
  %54 = add nsw i32 %51, %.02342
  %55 = trunc nuw nsw i64 %indvars.iv45 to i32
  call void @_ZNK7ABstats15PrintStatsDepthERSt14basic_ofstreamIcSt11char_traitsIcEEii(ptr noundef nonnull align 8 dereferenceable(2800) %0, ptr noundef nonnull align 8 dereferenceable(248) %1, i32 noundef %55, i32 noundef %54)
  br label %56

56:                                               ; preds = %49, %53
  %.1 = phi i32 [ %.02342, %49 ], [ %54, %53 ]
  %indvars.iv.next46 = add nsw i64 %indvars.iv45, -1
  %.not48 = icmp eq i64 %indvars.iv45, 0
  br i1 %.not48, label %57, label %49, !llvm.loop !13

57:                                               ; preds = %56
  call void @_ZNK7ABstats17PrintAverageDepthERSt14basic_ofstreamIcSt11char_traitsIcEERK9ABtracker(ptr noundef nonnull align 8 dereferenceable(2800) %0, ptr noundef nonnull align 8 dereferenceable(248) %1, ptr noundef nonnull align 4 dereferenceable(212) %3)
  ret void

.body:                                            ; preds = %43, %28, %41, %39, %24, %37
  %.sink = phi ptr [ %5, %37 ], [ %5, %24 ], [ %5, %39 ], [ %7, %41 ], [ %7, %28 ], [ %7, %43 ]
  %.pn32.pn = phi { ptr, i32 } [ %38, %37 ], [ %25, %24 ], [ %40, %39 ], [ %42, %41 ], [ %29, %28 ], [ %44, %43 ]
  call void @_ZNSaIcED1Ev(ptr noundef nonnull align 1 dereferenceable(1) %.sink) #13
  resume { ptr, i32 } %.pn32.pn
}